target datalayout = "e-m:e-p270:32:32-p271:32:32-p272:64:64-i64:64-i128:128-f80:128-n8:16:32:64-S128"
target triple = "x86_64-pc-linux-gnu"

; Function Attrs: nounwind uwtable
define i64 @_testfunc_bitfield_by_reference2(ptr noundef %0) #0 {
  %2 = alloca ptr, align 8
  %3 = alloca i64, align 8
  store ptr %0, ptr %2, align 8, !tbaa !7
  call void @llvm.lifetime.start.p0(i64 8, ptr %3) #12
  %4 = load ptr, ptr %2, align 8, !tbaa !7
  %5 = load i8, ptr %4, align 4
  %6 = and i8 %5, 1
  %7 = zext i8 %6 to i32
  %8 = load ptr, ptr %2, align 8, !tbaa !7
  %9 = load i8, ptr %8, align 4
  %10 = lshr i8 %9, 1
  %11 = and i8 %10, 3
  %12 = zext i8 %11 to i32
  %13 = add i32 %7, %12
  %14 = load ptr, ptr %2, align 8, !tbaa !7
  %15 = load i8, ptr %14, align 4
  %16 = lshr i8 %15, 3
  %17 = and i8 %16, 7
  %18 = zext i8 %17 to i32
  %19 = add i32 %13, %18
  %20 = load ptr, ptr %2, align 8, !tbaa !7
  %21 = load i8, ptr %20, align 4
  %22 = lshr i8 %21, 6
  %23 = zext i8 %22 to i32
  %24 = add i32 %19, %23
  %25 = sext i32 %24 to i64
  store i64 %25, ptr %3, align 8, !tbaa !35
  %26 = load ptr, ptr %2, align 8, !tbaa !7
  call void @llvm.memset.p0.i64(ptr align 4 %26, i8 0, i64 4, i1 false)
  %27 = load i64, ptr %3, align 8, !tbaa !35
  call void @llvm.lifetime.end.p0(i64 8, ptr %3) #12
  ret i64 %27
}