; Function Attrs: mustprogress nofree norecurse nosync nounwind willreturn memory(argmem: readwrite) uwtable
define range(i64 0, 15) i64 @_testfunc_bitfield_by_reference2(ptr noundef captures(none) initializes((1, 4)) %0) local_unnamed_addr #12 {
  %2 = load i8, ptr %0, align 4
  %3 = and i8 %2, 1
  %4 = lshr i8 %2, 1
  %5 = and i8 %4, 3
  %6 = lshr i8 %2, 3
  %7 = and i8 %6, 7
  %8 = lshr i8 %2, 6
  %narrow = add nuw nsw i8 %8, %3
  %narrow5 = add nuw nsw i8 %narrow, %5
  %narrow6 = add nuw nsw i8 %narrow5, %7
  %9 = zext nneg i8 %narrow6 to i64
  store i32 0, ptr %0, align 4
  ret i64 %9
}